; Function Attrs: mustprogress uwtable
define noundef zeroext i1 @_ZNK4cvc58internal8TypeNode11isRealOrIntEv(ptr noundef nonnull readonly align 8 captures(none) dereferenceable(8) %0) local_unnamed_addr #4 align 2 {
  %2 = load ptr, ptr %0, align 8, !tbaa !3
  %3 = getelementptr inbounds nuw i8, ptr %2, i64 8
  %4 = load i64, ptr %3, align 8
  %5 = and i64 %4, 1023
  %6 = icmp eq i64 %5, 13
  br i1 %6, label %_ZNK4cvc58internal8TypeNode6isRealEv.exit, label %_ZNK4cvc58internal8TypeNode6isRealEv.exit.thread

_ZNK4cvc58internal8TypeNode6isRealEv.exit:        ; preds = %1
  %7 = tail call noundef nonnull align 4 dereferenceable(4) ptr @_ZNK4cvc58internal4expr9NodeValue8getConstINS0_12TypeConstantEEERKT_v(ptr noundef nonnull align 8 dereferenceable(24) %2)
  %8 = load i32, ptr %7, align 4, !tbaa !46
  %9 = icmp eq i32 %8, 3
  br i1 %9, label %_ZNK4cvc58internal8TypeNode9isIntegerEv.exit, label %_ZNK4cvc58internal8TypeNode6isRealEv.exit._ZNK4cvc58internal8TypeNode6isRealEv.exit.thread_crit_edge

_ZNK4cvc58internal8TypeNode6isRealEv.exit._ZNK4cvc58internal8TypeNode6isRealEv.exit.thread_crit_edge: ; preds = %_ZNK4cvc58internal8TypeNode6isRealEv.exit
  %.pre = load ptr, ptr %0, align 8, !tbaa !3
  %.phi.trans.insert = getelementptr inbounds nuw i8, ptr %.pre, i64 8
  %.pre1 = load i64, ptr %.phi.trans.insert, align 8
  br label %_ZNK4cvc58internal8TypeNode6isRealEv.exit.thread

_ZNK4cvc58internal8TypeNode6isRealEv.exit.thread: ; preds = %_ZNK4cvc58internal8TypeNode6isRealEv.exit._ZNK4cvc58internal8TypeNode6isRealEv.exit.thread_crit_edge, %1
  %10 = phi i64 [ %.pre1, %_ZNK4cvc58internal8TypeNode6isRealEv.exit._ZNK4cvc58internal8TypeNode6isRealEv.exit.thread_crit_edge ], [ %4, %1 ]
  %11 = phi ptr [ %.pre, %_ZNK4cvc58internal8TypeNode6isRealEv.exit._ZNK4cvc58internal8TypeNode6isRealEv.exit.thread_crit_edge ], [ %2, %1 ]
  %12 = and i64 %10, 1023
  %13 = icmp eq i64 %12, 13
  br i1 %13, label %14, label %_ZNK4cvc58internal8TypeNode9isIntegerEv.exit

14:                                               ; preds = %_ZNK4cvc58internal8TypeNode6isRealEv.exit.thread
  %15 = tail call noundef nonnull align 4 dereferenceable(4) ptr @_ZNK4cvc58internal4expr9NodeValue8getConstINS0_12TypeConstantEEERKT_v(ptr noundef nonnull align 8 dereferenceable(24) %11)
  %16 = load i32, ptr %15, align 4, !tbaa !46
  %17 = icmp eq i32 %16, 4
  br label %_ZNK4cvc58internal8TypeNode9isIntegerEv.exit

_ZNK4cvc58internal8TypeNode9isIntegerEv.exit:     ; preds = %14, %_ZNK4cvc58internal8TypeNode6isRealEv.exit.thread, %_ZNK4cvc58internal8TypeNode6isRealEv.exit
  %18 = phi i1 [ true, %_ZNK4cvc58internal8TypeNode6isRealEv.exit ], [ false, %_ZNK4cvc58internal8TypeNode6isRealEv.exit.thread ], [ %17, %14 ]
  ret i1 %18
}